target datalayout = "e-m:e-p270:32:32-p271:32:32-p272:64:64-i64:64-i128:128-f80:128-n8:16:32:64-S128"
target triple = "x86_64-unknown-linux-gnu"

%struct.ArchCPU = type { %struct.CPUState, %struct.CPUArchState, ptr, ptr, %struct.RISCVCPUConfig, ptr, i32, ptr, [8 x i8] }
%struct.CPUState = type { %struct.DeviceState, ptr, i32, i32, ptr, i32, i8, i8, ptr, i8, i8, i8, i8, i8, i8, i8, i8, i32, i32, i32, i32, i64, i64, i64, [1 x %struct.__jmp_buf_tag], %struct.QemuMutex, %struct.anon, ptr, i32, ptr, ptr, ptr, ptr, i32, i32, %union.anon, %union.anon.0, %union.anon.1, ptr, ptr, i64, i32, ptr, ptr, ptr, i32, i64, i32, %struct.QemuLockCnt, [1 x i64], ptr, i32, i32, i32, i32, i32, ptr, i8, i8, i64, i8, i8, ptr, [8 x i8], [0 x i8], %struct.CPUNegativeOffsetState }
%struct.DeviceState = type { %struct.Object, ptr, ptr, i8, i8, i64, ptr, i32, i8, ptr, %struct.NamedGPIOListHead, %struct.NamedClockListHead, %struct.BusStateHead, i32, i32, i32, %struct.ResettableState, ptr, %struct.MemReentrancyGuard }
%struct.Object = type { ptr, ptr, ptr, i32, ptr }
%struct.NamedGPIOListHead = type { ptr }
%struct.NamedClockListHead = type { ptr }
%struct.BusStateHead = type { ptr }
%struct.ResettableState = type { i32, i8, i8 }
%struct.MemReentrancyGuard = type { i8 }
%struct.__jmp_buf_tag = type { [8 x i64], i32, %struct.__sigset_t }
%struct.__sigset_t = type { [16 x i64] }
%struct.QemuMutex = type { %union.pthread_mutex_t, i8 }
%union.pthread_mutex_t = type { %struct.__pthread_mutex_s }
%struct.__pthread_mutex_s = type { i32, i32, i32, i32, i32, i16, i16, %struct.__pthread_internal_list }
%struct.__pthread_internal_list = type { ptr, ptr }
%struct.anon = type { ptr, ptr }
%union.anon = type { %struct.QTailQLink }
%struct.QTailQLink = type { ptr, ptr }
%union.anon.0 = type { %struct.QTailQLink }
%union.anon.1 = type { %struct.QTailQLink }
%struct.QemuLockCnt = type { i32 }
%struct.CPUNegativeOffsetState = type { %struct.CPUTLB, %union.IcountDecr, i8, [11 x i8] }
%struct.CPUTLB = type { %struct.CPUTLBCommon, [16 x %struct.CPUTLBDesc], [16 x %struct.CPUTLBDescFast] }
%struct.CPUTLBCommon = type { %struct.QemuSpin, i16, i64, i64, i64 }
%struct.QemuSpin = type { i32 }
%struct.CPUTLBDesc = type { i64, i64, i64, i64, i64, i64, [8 x %union.CPUTLBEntry], [8 x %struct.CPUTLBEntryFull], ptr }
%union.CPUTLBEntry = type { %struct.anon.2 }
%struct.anon.2 = type { i64, i64, i64, i64 }
%struct.CPUTLBEntryFull = type { i64, i64, %struct.MemTxAttrs, i8, i8, [3 x i8], %union.anon.3 }
%struct.MemTxAttrs = type { i32 }
%union.anon.3 = type { %struct.anon.4 }
%struct.anon.4 = type { i8, i8, i8 }
%struct.CPUTLBDescFast = type { i64, ptr }
%union.IcountDecr = type { i32 }
%struct.CPUArchState = type { [32 x i64], [32 x i64], [512 x i64], i64, i64, i64, i64, i64, i8, i64, i64, i64, [32 x i64], i64, %struct.float_status, i64, i64, i64, i64, i64, i64, i32, i32, i32, i32, i32, i64, i64, i64, i8, i64, i64, i64, i64, i64, i8, i8, i64, i64, i64, i64, i64, i64, i64, i64, i64, i64, i64, i64, i64, i64, i64, [64 x i8], [64 x i8], i64, i64, i64, i64, i64, i64, i64, i64, i64, i64, i64, i64, i64, i64, i64, i64, i64, [64 x i8], i64, i64, i64, i64, i64, i64, i64, i64, i64, i64, i64, i64, i64, i64, i64, i64, i64, i64, i64, i8, i8, i64, i64, i64, [32 x %struct.PMUCTRState], [32 x i64], [32 x i64], i64, i64, i64, i64, %struct.pmp_table_t, i64, i64, [2 x i64], [2 x i64], [2 x i64], [2 x ptr], [2 x ptr], [2 x ptr], i64, i8, ptr, ptr, [4 x ptr], [4 x ptr], i8, i64, i64, i64, i64, i64, i64, i64, i64, [4 x i64], [4 x i64], [4 x i64], i64, i64, i64, i64, ptr, ptr, i8, i64, i64, [8 x i8] }
%struct.float_status = type { i16, i8, i8, i8, i8, i8, i8, i8, i8, i8, i8, i8 }
%struct.PMUCTRState = type { i64, i64, i64, i64, i8, i64 }
%struct.pmp_table_t = type { [16 x %struct.pmp_entry_t], [16 x %struct.pmp_addr_t], i32 }
%struct.pmp_entry_t = type { i64, i8 }
%struct.pmp_addr_t = type { i64, i64 }
%struct.RISCVCPUConfig = type { i8, i8, i8, i8, i8, i8, i8, i8, i8, i8, i8, i8, i8, i8, i8, i8, i8, i8, i8, i8, i8, i8, i8, i8, i8, i8, i8, i8, i8, i8, i8, i8, i8, i8, i8, i8, i8, i8, i8, i8, i8, i8, i8, i8, i8, i8, i8, i8, i8, i8, i8, i8, i8, i8, i8, i8, i8, i8, i8, i8, i8, i8, i8, i8, i8, i8, i8, i8, i8, i8, i8, i8, i8, i8, i8, i8, i8, i8, i32, i64, i64, i8, i8, i8, i8, i8, i8, i8, i8, i8, i8, i8, i8, i32, ptr, ptr, ptr, ptr, i16, i16, i16, i16, i8, i8, i8, i8, i8, %struct.RISCVSATPMap }
%struct.RISCVSATPMap = type { i16, i16, i16 }

; Function Attrs: nounwind sspstrong uwtable
define internal zeroext i1 @riscv_pmu_counter_valid(ptr noundef %cpu, i32 noundef %ctr_idx) #0 {
entry:
  %retval = alloca i1, align 1
  %cpu.addr = alloca ptr, align 8
  %ctr_idx.addr = alloca i32, align 4
  store ptr %cpu, ptr %cpu.addr, align 8
  store i32 %ctr_idx, ptr %ctr_idx.addr, align 4
  %0 = load i32, ptr %ctr_idx.addr, align 4
  %cmp = icmp ult i32 %0, 3
  br i1 %cmp, label %if.then, label %lor.lhs.false

lor.lhs.false:                                    ; preds = %entry
  %1 = load i32, ptr %ctr_idx.addr, align 4
  %cmp1 = icmp uge i32 %1, 32
  br i1 %cmp1, label %if.then, label %lor.lhs.false2

lor.lhs.false2:                                   ; preds = %lor.lhs.false
  %2 = load ptr, ptr %cpu.addr, align 8
  %pmu_avail_ctrs = getelementptr inbounds %struct.ArchCPU, ptr %2, i32 0, i32 6
  %3 = load i32, ptr %pmu_avail_ctrs, align 8
  %conv = zext i32 %3 to i64
  %4 = load i32, ptr %ctr_idx.addr, align 4
  %sh_prom = zext i32 %4 to i64
  %shl = shl i64 1, %sh_prom
  %and = and i64 %conv, %shl
  %tobool = icmp ne i64 %and, 0
  br i1 %tobool, label %if.else, label %if.then

if.then:                                          ; preds = %lor.lhs.false2, %lor.lhs.false, %entry
  store i1 false, ptr %retval, align 1
  br label %return

if.else:                                          ; preds = %lor.lhs.false2
  store i1 true, ptr %retval, align 1
  br label %return

return:                                           ; preds = %if.else, %if.then
  %5 = load i1, ptr %retval, align 1
  ret i1 %5
}

; Function Attrs: nounwind sspstrong uwtable
define internal i32 @riscv_cpu_mxl(ptr noundef %env) #0 {
entry:
  %env.addr = alloca ptr, align 8
  store ptr %env, ptr %env.addr, align 8
  %0 = load ptr, ptr %env.addr, align 8
  %misa_mxl = getelementptr inbounds %struct.CPUArchState, ptr %0, i32 0, i32 21
  %1 = load i32, ptr %misa_mxl, align 16
  ret i32 %1
}

; Function Attrs: nounwind sspstrong uwtable
define internal zeroext i1 @riscv_pmu_counter_enabled(ptr noundef %cpu, i32 noundef %ctr_idx) #0 {
entry:
  %retval = alloca i1, align 1
  %cpu.addr = alloca ptr, align 8
  %ctr_idx.addr = alloca i32, align 4
  %env = alloca ptr, align 8
  store ptr %cpu, ptr %cpu.addr, align 8
  store i32 %ctr_idx, ptr %ctr_idx.addr, align 4
  %0 = load ptr, ptr %cpu.addr, align 8
  %env1 = getelementptr inbounds %struct.ArchCPU, ptr %0, i32 0, i32 1
  store ptr %env1, ptr %env, align 8
  %1 = load ptr, ptr %cpu.addr, align 8
  %2 = load i32, ptr %ctr_idx.addr, align 4
  %call = call zeroext i1 @riscv_pmu_counter_valid(ptr noundef %1, i32 noundef %2)
  br i1 %call, label %land.lhs.true, label %if.else

land.lhs.true:                                    ; preds = %entry
  %3 = load ptr, ptr %env, align 8
  %mcountinhibit = getelementptr inbounds %struct.CPUArchState, ptr %3, i32 0, i32 95
  %4 = load i64, ptr %mcountinhibit, align 8
  %5 = load i32, ptr %ctr_idx.addr, align 4
  %sh_prom = zext i32 %5 to i64
  %shl = shl i64 1, %sh_prom
  %and = and i64 %4, %shl
  %6 = load i32, ptr %ctr_idx.addr, align 4
  %sh_prom2 = zext i32 %6 to i64
  %shl3 = shl i64 1, %sh_prom2
  %7 = load i32, ptr %ctr_idx.addr, align 4
  %sh_prom4 = zext i32 %7 to i64
  %shl5 = shl i64 1, %sh_prom4
  %shl6 = shl i64 %shl5, 1
  %not = xor i64 %shl6, -1
  %and7 = and i64 %shl3, %not
  %div = udiv i64 %and, %and7
  %tobool = icmp ne i64 %div, 0
  br i1 %tobool, label %if.else, label %if.then

if.then:                                          ; preds = %land.lhs.true
  store i1 true, ptr %retval, align 1
  br label %return

if.else:                                          ; preds = %land.lhs.true, %entry
  store i1 false, ptr %retval, align 1
  br label %return

return:                                           ; preds = %if.else, %if.then
  %8 = load i1, ptr %retval, align 1
  ret i1 %8
}

; Function Attrs: nounwind sspstrong uwtable
define internal void @pmu_timer_trigger_irq(ptr noundef %cpu, i32 noundef %evt_idx) #0 {
entry:
  %cpu.addr = alloca ptr, align 8
  %evt_idx.addr = alloca i32, align 4
  %ctr_idx = alloca i32, align 4
  %env = alloca ptr, align 8
  %counter = alloca ptr, align 8
  %mhpmevent_val = alloca ptr, align 8
  %of_bit_mask = alloca i64, align 8
  %irq_trigger_at = alloca i64, align 8
  store ptr %cpu, ptr %cpu.addr, align 8
  store i32 %evt_idx, ptr %evt_idx.addr, align 4
  %0 = load ptr, ptr %cpu.addr, align 8
  %env1 = getelementptr inbounds %struct.ArchCPU, ptr %0, i32 0, i32 1
  store ptr %env1, ptr %env, align 8
  %1 = load i32, ptr %evt_idx.addr, align 4
  %cmp = icmp ne i32 %1, 1
  br i1 %cmp, label %land.lhs.true, label %if.end

land.lhs.true:                                    ; preds = %entry
  %2 = load i32, ptr %evt_idx.addr, align 4
  %cmp2 = icmp ne i32 %2, 2
  br i1 %cmp2, label %if.then, label %if.end

if.then:                                          ; preds = %land.lhs.true
  br label %if.end31

if.end:                                           ; preds = %land.lhs.true, %entry
  %3 = load ptr, ptr %cpu.addr, align 8
  %pmu_event_ctr_map = getelementptr inbounds %struct.ArchCPU, ptr %3, i32 0, i32 7
  %4 = load ptr, ptr %pmu_event_ctr_map, align 16
  %5 = load i32, ptr %evt_idx.addr, align 4
  %conv = zext i32 %5 to i64
  %6 = inttoptr i64 %conv to ptr
  %call = call ptr @g_hash_table_lookup(ptr noundef %4, ptr noundef %6)
  %7 = ptrtoint ptr %call to i64
  %conv3 = trunc i64 %7 to i32
  store i32 %conv3, ptr %ctr_idx, align 4
  %8 = load ptr, ptr %cpu.addr, align 8
  %9 = load i32, ptr %ctr_idx, align 4
  %call4 = call zeroext i1 @riscv_pmu_counter_enabled(ptr noundef %8, i32 noundef %9)
  br i1 %call4, label %if.end6, label %if.then5

if.then5:                                         ; preds = %if.end
  br label %if.end31

if.end6:                                          ; preds = %if.end
  %10 = load ptr, ptr %env, align 8
  %call7 = call i32 @riscv_cpu_mxl(ptr noundef %10)
  %cmp8 = icmp eq i32 %call7, 1
  br i1 %cmp8, label %if.then10, label %if.else

if.then10:                                        ; preds = %if.end6
  %11 = load ptr, ptr %env, align 8
  %mhpmeventh_val = getelementptr inbounds %struct.CPUArchState, ptr %11, i32 0, i32 98
  %12 = load i32, ptr %ctr_idx, align 4
  %idxprom = zext i32 %12 to i64
  %arrayidx = getelementptr [32 x i64], ptr %mhpmeventh_val, i64 0, i64 %idxprom
  store ptr %arrayidx, ptr %mhpmevent_val, align 8
  store i64 2147483648, ptr %of_bit_mask, align 8
  br label %if.end14

if.else:                                          ; preds = %if.end6
  %13 = load ptr, ptr %env, align 8
  %mhpmevent_val11 = getelementptr inbounds %struct.CPUArchState, ptr %13, i32 0, i32 97
  %14 = load i32, ptr %ctr_idx, align 4
  %idxprom12 = zext i32 %14 to i64
  %arrayidx13 = getelementptr [32 x i64], ptr %mhpmevent_val11, i64 0, i64 %idxprom12
  store ptr %arrayidx13, ptr %mhpmevent_val, align 8
  store i64 -9223372036854775808, ptr %of_bit_mask, align 8
  br label %if.end14

if.end14:                                         ; preds = %if.else, %if.then10
  %15 = load ptr, ptr %env, align 8
  %pmu_ctrs = getelementptr inbounds %struct.CPUArchState, ptr %15, i32 0, i32 96
  %16 = load i32, ptr %ctr_idx, align 4
  %idxprom15 = zext i32 %16 to i64
  %arrayidx16 = getelementptr [32 x %struct.PMUCTRState], ptr %pmu_ctrs, i64 0, i64 %idxprom15
  store ptr %arrayidx16, ptr %counter, align 8
  %17 = load ptr, ptr %counter, align 8
  %irq_overflow_left = getelementptr inbounds %struct.PMUCTRState, ptr %17, i32 0, i32 5
  %18 = load i64, ptr %irq_overflow_left, align 8
  %cmp17 = icmp ugt i64 %18, 0
  br i1 %cmp17, label %if.then19, label %if.end23

if.then19:                                        ; preds = %if.end14
  %call20 = call i64 @qemu_clock_get_ns(i32 noundef 1)
  %19 = load ptr, ptr %counter, align 8
  %irq_overflow_left21 = getelementptr inbounds %struct.PMUCTRState, ptr %19, i32 0, i32 5
  %20 = load i64, ptr %irq_overflow_left21, align 8
  %add = add i64 %call20, %20
  store i64 %add, ptr %irq_trigger_at, align 8
  %21 = load ptr, ptr %cpu.addr, align 8
  %pmu_timer = getelementptr inbounds %struct.ArchCPU, ptr %21, i32 0, i32 5
  %22 = load ptr, ptr %pmu_timer, align 16
  %23 = load i64, ptr %irq_trigger_at, align 8
  call void @timer_mod_anticipate_ns(ptr noundef %22, i64 noundef %23)
  %24 = load ptr, ptr %counter, align 8
  %irq_overflow_left22 = getelementptr inbounds %struct.PMUCTRState, ptr %24, i32 0, i32 5
  store i64 0, ptr %irq_overflow_left22, align 8
  br label %if.end31

if.end23:                                         ; preds = %if.end14
  %25 = load ptr, ptr %cpu.addr, align 8
  %pmu_avail_ctrs = getelementptr inbounds %struct.ArchCPU, ptr %25, i32 0, i32 6
  %26 = load i32, ptr %pmu_avail_ctrs, align 8
  %conv24 = zext i32 %26 to i64
  %27 = load i32, ptr %ctr_idx, align 4
  %sh_prom = zext i32 %27 to i64
  %shl = shl i64 1, %sh_prom
  %and = and i64 %conv24, %shl
  %tobool = icmp ne i64 %and, 0
  br i1 %tobool, label %if.then25, label %if.end31

if.then25:                                        ; preds = %if.end23
  %28 = load ptr, ptr %mhpmevent_val, align 8
  %29 = load i64, ptr %28, align 8
  %30 = load i64, ptr %of_bit_mask, align 8
  %and26 = and i64 %29, %30
  %tobool27 = icmp ne i64 %and26, 0
  br i1 %tobool27, label %if.end30, label %if.then28

if.then28:                                        ; preds = %if.then25
  %31 = load i64, ptr %of_bit_mask, align 8
  %32 = load ptr, ptr %mhpmevent_val, align 8
  %33 = load i64, ptr %32, align 8
  %or = or i64 %33, %31
  store i64 %or, ptr %32, align 8
  %34 = load ptr, ptr %env, align 8
  %call29 = call i64 @riscv_cpu_update_mip(ptr noundef %34, i64 noundef 8192, i64 noundef -1)
  br label %if.end30

if.end30:                                         ; preds = %if.then28, %if.then25
  br label %if.end31

if.end31:                                         ; preds = %if.end30, %if.end23, %if.then19, %if.then5, %if.then
  ret void
}